target datalayout = "e-m:e-p270:32:32-p271:32:32-p272:64:64-i64:64-i128:128-f80:128-n8:16:32:64-S128"
target triple = "x86_64-pc-linux-gnu"

%struct.CONF_VALUE = type { ptr, ptr, ptr }

@SXNET_it.local_it = internal constant { i8, [7 x i8], i64, ptr, i64, ptr, i64, ptr } { i8 1, [7 x i8] zeroinitializer, i64 16, ptr @SXNET_seq_tt, i64 2, ptr null, i64 16, ptr @.str.1 }, align 8
@.str.2 = private unnamed_addr constant [34 x i8] c"../openssl/crypto/x509/v3_sxnet.c\00", align 1
@__func__.SXNET_add_id_asc = private unnamed_addr constant [17 x i8] c"SXNET_add_id_asc\00", align 1

; Function Attrs: nounwind uwtable
define ptr @SXNET_it() #0 {
  ret ptr @SXNET_it.local_it
}

; Function Attrs: nounwind uwtable
define void @SXNET_free(ptr noundef %0) #0 {
  %2 = alloca ptr, align 8
  store ptr %0, ptr %2, align 8, !tbaa !12
  %3 = load ptr, ptr %2, align 8, !tbaa !12
  %4 = call ptr @SXNET_it()
  call void @ASN1_item_free(ptr noundef %3, ptr noundef %4)
  ret void
}

; Function Attrs: nounwind uwtable
define i32 @SXNET_add_id_asc(ptr noundef %0, ptr noundef %1, ptr noundef %2, i32 noundef %3) #0 {
  %5 = alloca i32, align 4
  %6 = alloca ptr, align 8
  %7 = alloca ptr, align 8
  %8 = alloca ptr, align 8
  %9 = alloca i32, align 4
  %10 = alloca ptr, align 8
  %11 = alloca i32, align 4
  store ptr %0, ptr %6, align 8, !tbaa !43
  store ptr %1, ptr %7, align 8, !tbaa !36
  store ptr %2, ptr %8, align 8, !tbaa !36
  store i32 %3, ptr %9, align 4, !tbaa !14
  call void @llvm.lifetime.start.p0(i64 8, ptr %10) #5
  %12 = load ptr, ptr %7, align 8, !tbaa !36
  %13 = call ptr @s2i_ASN1_INTEGER(ptr noundef null, ptr noundef %12)
  store ptr %13, ptr %10, align 8, !tbaa !45
  %14 = icmp eq ptr %13, null
  br i1 %14, label %15, label %16

15:                                               ; preds = %4
  call void @ERR_new()
  call void @ERR_set_debug(ptr noundef @.str.2, i32 noundef 125, ptr noundef @__func__.SXNET_add_id_asc)
  call void (i32, i32, ptr, ...) @ERR_set_error(i32 noundef 34, i32 noundef 131, ptr noundef null)
  store i32 0, ptr %5, align 4
  store i32 1, ptr %11, align 4
  br label %26

16:                                               ; preds = %4
  %17 = load ptr, ptr %6, align 8, !tbaa !43
  %18 = load ptr, ptr %10, align 8, !tbaa !45
  %19 = load ptr, ptr %8, align 8, !tbaa !36
  %20 = load i32, ptr %9, align 4, !tbaa !14
  %21 = call i32 @SXNET_add_id_INTEGER(ptr noundef %17, ptr noundef %18, ptr noundef %19, i32 noundef %20)
  %22 = icmp ne i32 %21, 0
  br i1 %22, label %25, label %23

23:                                               ; preds = %16
  %24 = load ptr, ptr %10, align 8, !tbaa !45
  call void @ASN1_INTEGER_free(ptr noundef %24)
  store i32 0, ptr %5, align 4
  store i32 1, ptr %11, align 4
  br label %26

25:                                               ; preds = %16
  store i32 1, ptr %5, align 4
  store i32 1, ptr %11, align 4
  br label %26

26:                                               ; preds = %25, %23, %15
  call void @llvm.lifetime.end.p0(i64 8, ptr %10) #5
  %27 = load i32, ptr %5, align 4
  ret i32 %27
}

; Function Attrs: inlinehint nounwind uwtable
define internal ptr @ossl_check_const_CONF_VALUE_sk_type(ptr noundef %0) #4 {
  %2 = alloca ptr, align 8
  store ptr %0, ptr %2, align 8, !tbaa !10
  %3 = load ptr, ptr %2, align 8, !tbaa !10
  ret ptr %3
}

; Function Attrs: nounwind uwtable
define internal ptr @sxnet_v2i(ptr noundef %0, ptr noundef %1, ptr noundef %2) #0 {
  %4 = alloca ptr, align 8
  %5 = alloca ptr, align 8
  %6 = alloca ptr, align 8
  %7 = alloca ptr, align 8
  %8 = alloca ptr, align 8
  %9 = alloca ptr, align 8
  %10 = alloca i32, align 4
  %11 = alloca i32, align 4
  store ptr %0, ptr %5, align 8, !tbaa !3
  store ptr %1, ptr %6, align 8, !tbaa !8
  store ptr %2, ptr %7, align 8, !tbaa !10
  call void @llvm.lifetime.start.p0(i64 8, ptr %8) #5
  call void @llvm.lifetime.start.p0(i64 8, ptr %9) #5
  store ptr null, ptr %9, align 8, !tbaa !12
  call void @llvm.lifetime.start.p0(i64 4, ptr %10) #5
  store i32 0, ptr %10, align 4, !tbaa !14
  br label %12

12:                                               ; preds = %34, %3
  %13 = load i32, ptr %10, align 4, !tbaa !14
  %14 = load ptr, ptr %7, align 8, !tbaa !10
  %15 = call ptr @ossl_check_const_CONF_VALUE_sk_type(ptr noundef %14)
  %16 = call i32 @OPENSSL_sk_num(ptr noundef %15)
  %17 = icmp slt i32 %13, %16
  br i1 %17, label %18, label %37

18:                                               ; preds = %12
  %19 = load ptr, ptr %7, align 8, !tbaa !10
  %20 = call ptr @ossl_check_const_CONF_VALUE_sk_type(ptr noundef %19)
  %21 = load i32, ptr %10, align 4, !tbaa !14
  %22 = call ptr @OPENSSL_sk_value(ptr noundef %20, i32 noundef %21)
  store ptr %22, ptr %8, align 8, !tbaa !16
  %23 = load ptr, ptr %8, align 8, !tbaa !16
  %24 = getelementptr inbounds nuw %struct.CONF_VALUE, ptr %23, i32 0, i32 1
  %25 = load ptr, ptr %24, align 8, !tbaa !17
  %26 = load ptr, ptr %8, align 8, !tbaa !16
  %27 = getelementptr inbounds nuw %struct.CONF_VALUE, ptr %26, i32 0, i32 2
  %28 = load ptr, ptr %27, align 8, !tbaa !20
  %29 = call i32 @SXNET_add_id_asc(ptr noundef %9, ptr noundef %25, ptr noundef %28, i32 noundef -1)
  %30 = icmp ne i32 %29, 0
  br i1 %30, label %33, label %31

31:                                               ; preds = %18
  %32 = load ptr, ptr %9, align 8, !tbaa !12
  call void @SXNET_free(ptr noundef %32)
  store ptr null, ptr %4, align 8
  store i32 1, ptr %11, align 4
  br label %39

33:                                               ; preds = %18
  br label %34

34:                                               ; preds = %33
  %35 = load i32, ptr %10, align 4, !tbaa !14
  %36 = add nsw i32 %35, 1
  store i32 %36, ptr %10, align 4, !tbaa !14
  br label %12, !llvm.loop !21

37:                                               ; preds = %12
  %38 = load ptr, ptr %9, align 8, !tbaa !12
  store ptr %38, ptr %4, align 8
  store i32 1, ptr %11, align 4
  br label %39

39:                                               ; preds = %37, %31
  call void @llvm.lifetime.end.p0(i64 4, ptr %10) #5
  call void @llvm.lifetime.end.p0(i64 8, ptr %9) #5
  call void @llvm.lifetime.end.p0(i64 8, ptr %8) #5
  %40 = load ptr, ptr %4, align 8
  ret ptr %40
}