; Function Attrs: nounwind uwtable
define internal ptr @sxnet_v2i(ptr readnone captures(none) %0, ptr readnone captures(none) %1, ptr noundef %2) #1 {
  %4 = alloca ptr, align 8
  call void @llvm.lifetime.start.p0(i64 8, ptr nonnull %4) #5
  store ptr null, ptr %4, align 8, !tbaa !3
  %5 = tail call i32 @OPENSSL_sk_num(ptr noundef %2) #5
  %6 = icmp sgt i32 %5, 0
  br i1 %6, label %.lr.ph, label %._crit_edge

7:                                                ; preds = %SXNET_add_id_asc.exit
  %8 = add nuw nsw i32 %.011, 1
  %9 = call i32 @OPENSSL_sk_num(ptr noundef %2) #5
  %10 = icmp slt i32 %8, %9
  br i1 %10, label %.lr.ph, label %._crit_edge.loopexit, !llvm.loop !8

.lr.ph:                                           ; preds = %3, %7
  %.011 = phi i32 [ %8, %7 ], [ 0, %3 ]
  %11 = call ptr @OPENSSL_sk_value(ptr noundef %2, i32 noundef %.011) #5
  %12 = getelementptr inbounds nuw i8, ptr %11, i64 8
  %13 = load ptr, ptr %12, align 8, !tbaa !10
  %14 = getelementptr inbounds nuw i8, ptr %11, i64 16
  %15 = load ptr, ptr %14, align 8, !tbaa !13
  %16 = call ptr @s2i_ASN1_INTEGER(ptr noundef null, ptr noundef %13) #5
  %17 = icmp eq ptr %16, null
  br i1 %17, label %18, label %SXNET_add_id_asc.exit

18:                                               ; preds = %.lr.ph
  call void @ERR_new() #5
  call void @ERR_set_debug(ptr noundef nonnull @.str.2, i32 noundef 125, ptr noundef nonnull @__func__.SXNET_add_id_asc) #5
  call void (i32, i32, ptr, ...) @ERR_set_error(i32 noundef 34, i32 noundef 131, ptr noundef null) #5
  br label %21

SXNET_add_id_asc.exit:                            ; preds = %.lr.ph
  %19 = call i32 @SXNET_add_id_INTEGER(ptr noundef nonnull %4, ptr noundef nonnull %16, ptr noundef %15, i32 noundef -1)
  %.not.i = icmp eq i32 %19, 0
  br i1 %.not.i, label %20, label %7

20:                                               ; preds = %SXNET_add_id_asc.exit
  call void @ASN1_INTEGER_free(ptr noundef nonnull %16) #5
  br label %21

21:                                               ; preds = %18, %20
  %22 = load ptr, ptr %4, align 8, !tbaa !3
  call void @ASN1_item_free(ptr noundef %22, ptr noundef nonnull @SXNET_it.local_it) #5
  br label %._crit_edge

._crit_edge.loopexit:                             ; preds = %7
  %.pre = load ptr, ptr %4, align 8, !tbaa !3
  br label %._crit_edge

._crit_edge:                                      ; preds = %3, %._crit_edge.loopexit, %21
  %.07 = phi ptr [ null, %21 ], [ %.pre, %._crit_edge.loopexit ], [ null, %3 ]
  call void @llvm.lifetime.end.p0(i64 8, ptr nonnull %4) #5
  ret ptr %.07
}